; Function Attrs: nounwind uwtable
define void @nxsem_boost_priority(ptr noundef readonly captures(none) %0) local_unnamed_addr #2 {
  %2 = getelementptr inbounds nuw i8, ptr %0, i64 24
  %3 = load ptr, ptr %2, align 8
  %.not.i = icmp eq ptr %3, null
  br i1 %.not.i, label %nxsem_foreachholder.exit, label %.lr.ph.i.preheader

.lr.ph.i.preheader:                               ; preds = %1
  %4 = load ptr, ptr @g_readytorun, align 8
  %5 = getelementptr inbounds nuw i8, ptr %4, i64 28
  br label %.lr.ph.i

.lr.ph.i:                                         ; preds = %.lr.ph.i.preheader, %nxsem_boostholderprio.exit
  %.010.i = phi ptr [ %6, %nxsem_boostholderprio.exit ], [ %3, %.lr.ph.i.preheader ]
  %6 = load ptr, ptr %.010.i, align 8
  %7 = getelementptr inbounds nuw i8, ptr %.010.i, i64 24
  %8 = load ptr, ptr %7, align 8
  %9 = load i8, ptr %5, align 4
  %10 = getelementptr inbounds nuw i8, ptr %8, i64 28
  %11 = load i8, ptr %10, align 4
  %12 = icmp ugt i8 %9, %11
  br i1 %12, label %13, label %nxsem_boostholderprio.exit

13:                                               ; preds = %.lr.ph.i
  %14 = zext i8 %9 to i32
  %15 = tail call i32 @nxsched_set_priority(ptr noundef nonnull %8, i32 noundef %14) #7
  br label %nxsem_boostholderprio.exit

nxsem_boostholderprio.exit:                       ; preds = %.lr.ph.i, %13
  %.not = icmp eq ptr %6, null
  br i1 %.not, label %nxsem_foreachholder.exit, label %.lr.ph.i, !llvm.loop !10

nxsem_foreachholder.exit:                         ; preds = %nxsem_boostholderprio.exit, %1
  ret void
}